; ModuleID = '40/2842.c'
source_filename = "40/2842.c"
target datalayout = "e-m:e-p270:32:32-p271:32:32-p272:64:64-i64:64-f80:128-n8:16:32:64-S128"
target triple = "x86_64-pc-linux-gnu"

@.str = private unnamed_addr constant [16 x i8] c"%lf%lf%lf%lf%lf\00", align 1
@.str.1 = private unnamed_addr constant [14 x i8] c"Invalid input\00", align 1
@.str.2 = private unnamed_addr constant [6 x i8] c"%.4lf\00", align 1

; Function Attrs: noinline nounwind uwtable
define dso_local i32 @main() #0 {
  %1 = alloca i32, align 4
  %2 = alloca double, align 8
  %3 = alloca double, align 8
  %4 = alloca double, align 8
  %5 = alloca double, align 8
  %6 = alloca double, align 8
  %7 = alloca double, align 8
  store i32 0, i32* %1, align 4
  %8 = call i32 (i8*, ...) @__isoc99_scanf(i8* getelementptr inbounds ([16 x i8], [16 x i8]* @.str, i64 0, i64 0), double* %2, double* %3, double* %4, double* %5, double* %6)
  %9 = load double, double* %2, align 8
  %10 = load double, double* %3, align 8
  %11 = load double, double* %4, align 8
  %12 = load double, double* %5, align 8
  %13 = load double, double* %6, align 8
  %14 = call double @s(double %9, double %10, double %11, double %12, double %13)
  store double %14, double* %7, align 8
  %15 = load double, double* %7, align 8
  %16 = fcmp oeq double %15, 0.000000e+00
  br i1 %16, label %17, label %19

17:                                               ; preds = %0
  %18 = call i32 (i8*, ...) @printf(i8* getelementptr inbounds ([14 x i8], [14 x i8]* @.str.1, i64 0, i64 0))
  br label %22

19:                                               ; preds = %0
  %20 = load double, double* %7, align 8
  %21 = call i32 (i8*, ...) @printf(i8* getelementptr inbounds ([6 x i8], [6 x i8]* @.str.2, i64 0, i64 0), double %20)
  br label %22

22:                                               ; preds = %19, %17
  ret i32 0
}

declare dso_local i32 @__isoc99_scanf(i8*, ...) #1

; Function Attrs: noinline nounwind uwtable
define dso_local double @s(double %0, double %1, double %2, double %3, double %4) #0 {
  %6 = alloca double, align 8
  %7 = alloca double, align 8
  %8 = alloca double, align 8
  %9 = alloca double, align 8
  %10 = alloca double, align 8
  %11 = alloca double, align 8
  %12 = alloca double, align 8
  %13 = alloca double, align 8
  store double %0, double* %6, align 8
  store double %1, double* %7, align 8
  store double %2, double* %8, align 8
  store double %3, double* %9, align 8
  store double %4, double* %10, align 8
  %14 = load double, double* %6, align 8
  %15 = load double, double* %7, align 8
  %16 = fadd double %14, %15
  %17 = load double, double* %8, align 8
  %18 = fadd double %16, %17
  %19 = load double, double* %9, align 8
  %20 = fadd double %18, %19
  %21 = fdiv double %20, 2.000000e+00
  store double %21, double* %11, align 8
  %22 = load double, double* %10, align 8
  %23 = fdiv double %22, 3.600000e+02
  %24 = fmul double %23, 1.000000e+02
  store double %24, double* %12, align 8
  %25 = load double, double* %11, align 8
  %26 = load double, double* %6, align 8
  %27 = fsub double %25, %26
  %28 = load double, double* %11, align 8
  %29 = load double, double* %7, align 8
  %30 = fsub double %28, %29
  %31 = fmul double %27, %30
  %32 = load double, double* %11, align 8
  %33 = load double, double* %8, align 8
  %34 = fsub double %32, %33
  %35 = fmul double %31, %34
  %36 = load double, double* %11, align 8
  %37 = load double, double* %9, align 8
  %38 = fsub double %36, %37
  %39 = fmul double %35, %38
  %40 = fcmp oge double %39, 0.000000e+00
  br i1 %40, label %41, label %72

41:                                               ; preds = %5
  %42 = load double, double* %11, align 8
  %43 = load double, double* %6, align 8
  %44 = fsub double %42, %43
  %45 = load double, double* %11, align 8
  %46 = load double, double* %7, align 8
  %47 = fsub double %45, %46
  %48 = fmul double %44, %47
  %49 = load double, double* %11, align 8
  %50 = load double, double* %8, align 8
  %51 = fsub double %49, %50
  %52 = fmul double %48, %51
  %53 = load double, double* %11, align 8
  %54 = load double, double* %9, align 8
  %55 = fsub double %53, %54
  %56 = fmul double %52, %55
  %57 = load double, double* %6, align 8
  %58 = load double, double* %7, align 8
  %59 = fmul double %57, %58
  %60 = load double, double* %8, align 8
  %61 = fmul double %59, %60
  %62 = load double, double* %9, align 8
  %63 = fmul double %61, %62
  %64 = load double, double* %12, align 8
  %65 = call double @cos(double %64) #3
  %66 = fmul double %63, %65
  %67 = load double, double* %12, align 8
  %68 = call double @cos(double %67) #3
  %69 = fmul double %66, %68
  %70 = fsub double %56, %69
  %71 = call double @sqrt(double %70) #3
  store double %71, double* %13, align 8
  br label %73

72:                                               ; preds = %5
  store double 0.000000e+00, double* %13, align 8
  br label %73

73:                                               ; preds = %72, %41
  %74 = load double, double* %13, align 8
  ret double %74
}

declare dso_local i32 @printf(i8*, ...) #1

; Function Attrs: nounwind
declare dso_local double @sqrt(double) #2

; Function Attrs: nounwind
declare dso_local double @cos(double) #2


!llvm.module.flags = !{!0}
!llvm.ident = !{!1}

!0 = !{i32 1, !"wchar_size", i32 4}
!1 = !{!"clang version 10.0.0-4ubuntu1 "}
